target datalayout = "e-m:e-p270:32:32-p271:32:32-p272:64:64-i64:64-i128:128-f80:128-n8:16:32:64-S128"
target triple = "x86_64-pc-linux-gnu"

%struct.tok_state = type { ptr, ptr, ptr, i32, ptr, ptr, ptr, ptr, i32, ptr, i32, i32, [100 x i32], i32, i32, ptr, ptr, i32, i32, i32, i32, i32, [200 x i8], [200 x i32], [200 x i32], ptr, [100 x i32], i32, i32, ptr, i32, ptr, ptr, ptr, ptr, ptr, ptr, ptr, ptr, i32, i32, ptr, i32, [150 x %struct._tokenizer_mode], i32, i32, i32, i32 }
%struct._tokenizer_mode = type { i32, i32, i32, i8, i32, i32, ptr, ptr, i32, i64, i64, i64, i64, ptr, i32, i32 }
%struct._object = type { %union.anon, ptr }
%union.anon = type { i64 }
%struct.anon = type { i32, i32 }

; Function Attrs: alwaysinline nounwind uwtable
define internal void @Py_INCREF(ptr noundef %0) #4 {
  %2 = alloca ptr, align 8
  %3 = alloca i32, align 4
  %4 = alloca i32, align 4
  store ptr %0, ptr %2, align 8, !tbaa !4
  call void @llvm.lifetime.start.p0(i64 4, ptr %3) #7
  %5 = load ptr, ptr %2, align 8, !tbaa !4
  %6 = getelementptr inbounds nuw %struct._object, ptr %5, i32 0, i32 0
  %7 = getelementptr inbounds nuw %struct.anon, ptr %6, i32 0, i32 0
  %8 = load i32, ptr %7, align 8, !tbaa !30
  store i32 %8, ptr %3, align 4, !tbaa !11
  %9 = load i32, ptr %3, align 4, !tbaa !11
  %10 = icmp slt i32 %9, 0
  br i1 %10, label %11, label %12

11:                                               ; preds = %1
  store i32 1, ptr %4, align 4
  br label %18

12:                                               ; preds = %1
  %13 = load i32, ptr %3, align 4, !tbaa !11
  %14 = add i32 %13, 1
  %15 = load ptr, ptr %2, align 8, !tbaa !4
  %16 = getelementptr inbounds nuw %struct._object, ptr %15, i32 0, i32 0
  %17 = getelementptr inbounds nuw %struct.anon, ptr %16, i32 0, i32 0
  store i32 %14, ptr %17, align 8, !tbaa !30
  store i32 0, ptr %4, align 4
  br label %18

18:                                               ; preds = %12, %11
  call void @llvm.lifetime.end.p0(i64 4, ptr %3) #7
  %19 = load i32, ptr %4, align 4
  switch i32 %19, label %21 [
    i32 0, label %20
    i32 1, label %20
  ]

20:                                               ; preds = %18, %18
  ret void

21:                                               ; preds = %18
  unreachable
}

; Function Attrs: nounwind uwtable
define hidden ptr @_PyTokenizer_FromReadline(ptr noundef %0, ptr noundef %1, i32 noundef %2, i32 noundef %3) #0 {
  %5 = alloca ptr, align 8
  %6 = alloca ptr, align 8
  %7 = alloca ptr, align 8
  %8 = alloca i32, align 4
  %9 = alloca i32, align 4
  %10 = alloca ptr, align 8
  %11 = alloca i32, align 4
  store ptr %0, ptr %6, align 8, !tbaa !4
  store ptr %1, ptr %7, align 8, !tbaa !9
  store i32 %2, ptr %8, align 4, !tbaa !11
  store i32 %3, ptr %9, align 4, !tbaa !11
  call void @llvm.lifetime.start.p0(i64 8, ptr %10) #7
  %12 = call ptr @_PyTokenizer_tok_new()
  store ptr %12, ptr %10, align 8, !tbaa !13
  %13 = load ptr, ptr %10, align 8, !tbaa !13
  %14 = icmp eq ptr %13, null
  br i1 %14, label %15, label %16

15:                                               ; preds = %4
  store ptr null, ptr %5, align 8
  store i32 1, ptr %11, align 4
  br label %66

16:                                               ; preds = %4
  %17 = call ptr @PyMem_Malloc(i64 noundef 8192)
  %18 = load ptr, ptr %10, align 8, !tbaa !13
  %19 = getelementptr inbounds nuw %struct.tok_state, ptr %18, i32 0, i32 0
  store ptr %17, ptr %19, align 8, !tbaa !15
  %20 = icmp eq ptr %17, null
  br i1 %20, label %21, label %23

21:                                               ; preds = %16
  %22 = load ptr, ptr %10, align 8, !tbaa !13
  call void @_PyTokenizer_Free(ptr noundef %22)
  store ptr null, ptr %5, align 8
  store i32 1, ptr %11, align 4
  br label %66

23:                                               ; preds = %16
  %24 = load ptr, ptr %10, align 8, !tbaa !13
  %25 = getelementptr inbounds nuw %struct.tok_state, ptr %24, i32 0, i32 0
  %26 = load ptr, ptr %25, align 8, !tbaa !15
  %27 = load ptr, ptr %10, align 8, !tbaa !13
  %28 = getelementptr inbounds nuw %struct.tok_state, ptr %27, i32 0, i32 2
  store ptr %26, ptr %28, align 8, !tbaa !18
  %29 = load ptr, ptr %10, align 8, !tbaa !13
  %30 = getelementptr inbounds nuw %struct.tok_state, ptr %29, i32 0, i32 1
  store ptr %26, ptr %30, align 8, !tbaa !19
  %31 = load ptr, ptr %10, align 8, !tbaa !13
  %32 = getelementptr inbounds nuw %struct.tok_state, ptr %31, i32 0, i32 0
  %33 = load ptr, ptr %32, align 8, !tbaa !15
  %34 = getelementptr i8, ptr %33, i64 8192
  %35 = load ptr, ptr %10, align 8, !tbaa !13
  %36 = getelementptr inbounds nuw %struct.tok_state, ptr %35, i32 0, i32 6
  store ptr %34, ptr %36, align 8, !tbaa !20
  %37 = load ptr, ptr %10, align 8, !tbaa !13
  %38 = getelementptr inbounds nuw %struct.tok_state, ptr %37, i32 0, i32 9
  store ptr null, ptr %38, align 8, !tbaa !21
  %39 = load ptr, ptr %7, align 8, !tbaa !9
  %40 = icmp ne ptr %39, null
  br i1 %40, label %41, label %56

41:                                               ; preds = %23
  %42 = load ptr, ptr %7, align 8, !tbaa !9
  %43 = load ptr, ptr %7, align 8, !tbaa !9
  %44 = call i64 @strlen(ptr noundef %43) #8
  %45 = load ptr, ptr %10, align 8, !tbaa !13
  %46 = call ptr @_PyTokenizer_new_string(ptr noundef %42, i64 noundef %44, ptr noundef %45)
  %47 = load ptr, ptr %10, align 8, !tbaa !13
  %48 = getelementptr inbounds nuw %struct.tok_state, ptr %47, i32 0, i32 29
  store ptr %46, ptr %48, align 8, !tbaa !22
  %49 = load ptr, ptr %10, align 8, !tbaa !13
  %50 = getelementptr inbounds nuw %struct.tok_state, ptr %49, i32 0, i32 29
  %51 = load ptr, ptr %50, align 8, !tbaa !22
  %52 = icmp ne ptr %51, null
  br i1 %52, label %55, label %53

53:                                               ; preds = %41
  %54 = load ptr, ptr %10, align 8, !tbaa !13
  call void @_PyTokenizer_Free(ptr noundef %54)
  store ptr null, ptr %5, align 8
  store i32 1, ptr %11, align 4
  br label %66

55:                                               ; preds = %41
  br label %56

56:                                               ; preds = %55, %23
  %57 = load ptr, ptr %10, align 8, !tbaa !13
  %58 = getelementptr inbounds nuw %struct.tok_state, ptr %57, i32 0, i32 27
  store i32 2, ptr %58, align 8, !tbaa !23
  %59 = load ptr, ptr %10, align 8, !tbaa !13
  %60 = getelementptr inbounds nuw %struct.tok_state, ptr %59, i32 0, i32 41
  store ptr @tok_underflow_readline, ptr %60, align 8, !tbaa !24
  %61 = load ptr, ptr %6, align 8, !tbaa !4
  call void @Py_INCREF(ptr noundef %61)
  %62 = load ptr, ptr %6, align 8, !tbaa !4
  %63 = load ptr, ptr %10, align 8, !tbaa !13
  %64 = getelementptr inbounds nuw %struct.tok_state, ptr %63, i32 0, i32 35
  store ptr %62, ptr %64, align 8, !tbaa !25
  %65 = load ptr, ptr %10, align 8, !tbaa !13
  store ptr %65, ptr %5, align 8
  store i32 1, ptr %11, align 4
  br label %66

66:                                               ; preds = %56, %53, %21, %15
  call void @llvm.lifetime.end.p0(i64 8, ptr %10) #7
  %67 = load ptr, ptr %5, align 8
  ret ptr %67
}