; Function Attrs: nounwind uwtable
define hidden ptr @_PyTokenizer_FromReadline(ptr noundef %0, ptr noundef %1, i32 noundef %2, i32 noundef %3) local_unnamed_addr #0 {
  %5 = tail call ptr @_PyTokenizer_tok_new() #5
  %6 = icmp eq ptr %5, null
  br i1 %6, label %30, label %7

7:                                                ; preds = %4
  %8 = tail call ptr @PyMem_Malloc(i64 noundef 8192) #5
  store ptr %8, ptr %5, align 8, !tbaa !4
  %9 = icmp eq ptr %8, null
  br i1 %9, label %10, label %11

10:                                               ; preds = %7
  tail call void @_PyTokenizer_Free(ptr noundef nonnull %5) #5
  br label %30

11:                                               ; preds = %7
  %12 = getelementptr inbounds nuw i8, ptr %5, i64 16
  store ptr %8, ptr %12, align 8, !tbaa !13
  %13 = getelementptr inbounds nuw i8, ptr %5, i64 8
  store ptr %8, ptr %13, align 8, !tbaa !14
  %14 = getelementptr i8, ptr %8, i64 8192
  %15 = getelementptr inbounds nuw i8, ptr %5, i64 48
  store ptr %14, ptr %15, align 8, !tbaa !15
  %16 = getelementptr inbounds nuw i8, ptr %5, i64 72
  store ptr null, ptr %16, align 8, !tbaa !16
  %.not = icmp eq ptr %1, null
  br i1 %.not, label %22, label %17

17:                                               ; preds = %11
  %18 = tail call i64 @strlen(ptr noundef nonnull dereferenceable(1) %1) #6
  %19 = tail call ptr @_PyTokenizer_new_string(ptr noundef nonnull %1, i64 noundef %18, ptr noundef nonnull %5) #5
  %20 = getelementptr inbounds nuw i8, ptr %5, i64 2752
  store ptr %19, ptr %20, align 8, !tbaa !17
  %.not26 = icmp eq ptr %19, null
  br i1 %.not26, label %21, label %22

21:                                               ; preds = %17
  tail call void @_PyTokenizer_Free(ptr noundef nonnull %5) #5
  br label %30

22:                                               ; preds = %17, %11
  %23 = getelementptr inbounds nuw i8, ptr %5, i64 2744
  store i32 2, ptr %23, align 8, !tbaa !18
  %24 = getelementptr inbounds nuw i8, ptr %5, i64 2840
  store ptr @tok_underflow_readline, ptr %24, align 8, !tbaa !19
  %25 = load i32, ptr %0, align 8, !tbaa !20
  %26 = icmp slt i32 %25, 0
  br i1 %26, label %Py_INCREF.exit, label %27

27:                                               ; preds = %22
  %28 = add nuw i32 %25, 1
  store i32 %28, ptr %0, align 8, !tbaa !20
  br label %Py_INCREF.exit

Py_INCREF.exit:                                   ; preds = %22, %27
  %29 = getelementptr inbounds nuw i8, ptr %5, i64 2800
  store ptr %0, ptr %29, align 8, !tbaa !21
  br label %30

30:                                               ; preds = %4, %Py_INCREF.exit, %21, %10
  %.0 = phi ptr [ null, %10 ], [ %5, %Py_INCREF.exit ], [ null, %21 ], [ null, %4 ]
  ret ptr %.0
}